target datalayout = "e-m:e-p270:32:32-p271:32:32-p272:64:64-i64:64-i128:128-f80:128-n8:16:32:64-S128"
target triple = "x86_64-pc-linux-gnu"

%"class.google::protobuf::UnknownFieldSet" = type { %"class.std::vector" }
%"class.std::vector" = type { %"struct.std::_Vector_base" }
%"struct.std::_Vector_base" = type { %"struct.std::_Vector_base<google::protobuf::UnknownField, std::allocator<google::protobuf::UnknownField>>::_Vector_impl" }
%"struct.std::_Vector_base<google::protobuf::UnknownField, std::allocator<google::protobuf::UnknownField>>::_Vector_impl" = type { %"struct.std::_Vector_base<google::protobuf::UnknownField, std::allocator<google::protobuf::UnknownField>>::_Vector_impl_data" }
%"struct.std::_Vector_base<google::protobuf::UnknownField, std::allocator<google::protobuf::UnknownField>>::_Vector_impl_data" = type { ptr, ptr, ptr }
%"class.google::protobuf::UnknownField" = type { i32, i32, %union.anon }
%union.anon = type { i64 }
%"class.std::__cxx11::basic_string" = type { %"struct.std::__cxx11::basic_string<char>::_Alloc_hider", i64, %union.anon.3 }
%"struct.std::__cxx11::basic_string<char>::_Alloc_hider" = type { ptr }
%union.anon.3 = type { i64, [8 x i8] }

; Function Attrs: mustprogress nounwind uwtable
define linkonce_odr hidden noundef i32 @_ZN6google8protobuf4Bits18Log2FloorNonZero64Em(i64 noundef %0) #9 comdat align 2 {
  %2 = alloca i64, align 8
  store i64 %0, ptr %2, align 8, !tbaa !17
  %3 = load i64, ptr %2, align 8, !tbaa !17
  %4 = call i64 @llvm.ctlz.i64(i64 %3, i1 true)
  %5 = trunc i64 %4 to i32
  %6 = xor i32 63, %5
  ret i32 %6
}

; Function Attrs: mustprogress nounwind uwtable
define linkonce_odr hidden noundef i32 @_ZN6google8protobuf4Bits16Log2FloorNonZeroEj(i32 noundef %0) #9 comdat align 2 {
  %2 = alloca i32, align 4
  store i32 %0, ptr %2, align 4, !tbaa !10
  %3 = load i32, ptr %2, align 4, !tbaa !10
  %4 = call i32 @llvm.ctlz.i32(i32 %3, i1 true)
  %5 = xor i32 31, %4
  ret i32 %5
}

; Function Attrs: mustprogress nounwind uwtable
define linkonce_odr hidden noundef nonnull align 8 dereferenceable(16) ptr @_ZNKSt6vectorIN6google8protobuf12UnknownFieldESaIS2_EEixEm(ptr noundef nonnull align 8 dereferenceable(24) %0, i64 noundef %1) #9 comdat align 2 {
  %3 = alloca ptr, align 8
  %4 = alloca i64, align 8
  store ptr %0, ptr %3, align 8, !tbaa !315
  store i64 %1, ptr %4, align 8, !tbaa !17
  %5 = load ptr, ptr %3, align 8
  %6 = getelementptr inbounds nuw %"struct.std::_Vector_base", ptr %5, i32 0, i32 0
  %7 = getelementptr inbounds nuw %"struct.std::_Vector_base<google::protobuf::UnknownField, std::allocator<google::protobuf::UnknownField>>::_Vector_impl_data", ptr %6, i32 0, i32 0
  %8 = load ptr, ptr %7, align 8, !tbaa !319
  %9 = load i64, ptr %4, align 8, !tbaa !17
  %10 = getelementptr inbounds nuw %"class.google::protobuf::UnknownField", ptr %8, i64 %9
  ret ptr %10
}

; Function Attrs: mustprogress nounwind uwtable
define linkonce_odr hidden noundef i64 @_ZNKSt6vectorIN6google8protobuf12UnknownFieldESaIS2_EE4sizeEv(ptr noundef nonnull align 8 dereferenceable(24) %0) #9 comdat align 2 {
  %2 = alloca ptr, align 8
  store ptr %0, ptr %2, align 8, !tbaa !315
  %3 = load ptr, ptr %2, align 8
  %4 = getelementptr inbounds nuw %"struct.std::_Vector_base", ptr %3, i32 0, i32 0
  %5 = getelementptr inbounds nuw %"struct.std::_Vector_base<google::protobuf::UnknownField, std::allocator<google::protobuf::UnknownField>>::_Vector_impl_data", ptr %4, i32 0, i32 1
  %6 = load ptr, ptr %5, align 8, !tbaa !317
  %7 = getelementptr inbounds nuw %"struct.std::_Vector_base", ptr %3, i32 0, i32 0
  %8 = getelementptr inbounds nuw %"struct.std::_Vector_base<google::protobuf::UnknownField, std::allocator<google::protobuf::UnknownField>>::_Vector_impl_data", ptr %7, i32 0, i32 0
  %9 = load ptr, ptr %8, align 8, !tbaa !319
  %10 = ptrtoint ptr %6 to i64
  %11 = ptrtoint ptr %9 to i64
  %12 = sub i64 %10, %11
  %13 = sdiv exact i64 %12, 16
  ret i64 %13
}

; Function Attrs: inlinehint mustprogress nounwind uwtable
define linkonce_odr hidden noundef nonnull align 8 dereferenceable(24) ptr @_ZNK6google8protobuf12UnknownField5groupEv(ptr noundef nonnull align 8 dereferenceable(16) %0) #6 comdat align 2 {
  %2 = alloca ptr, align 8
  store ptr %0, ptr %2, align 8, !tbaa !54
  %3 = load ptr, ptr %2, align 8
  %4 = getelementptr inbounds nuw %"class.google::protobuf::UnknownField", ptr %3, i32 0, i32 2
  %5 = load ptr, ptr %4, align 8, !tbaa !33
  ret ptr %5
}

; Function Attrs: mustprogress nounwind uwtable
define available_externally noundef i64 @_ZNKSt7__cxx1112basic_stringIcSt11char_traitsIcESaIcEE4sizeEv(ptr noundef nonnull align 8 dereferenceable(32) %0) #9 align 2 {
  %2 = alloca ptr, align 8
  store ptr %0, ptr %2, align 8, !tbaa !63
  %3 = load ptr, ptr %2, align 8
  %4 = getelementptr inbounds nuw %"class.std::__cxx11::basic_string", ptr %3, i32 0, i32 1
  %5 = load i64, ptr %4, align 8, !tbaa !67
  ret i64 %5
}

; Function Attrs: inlinehint mustprogress nounwind uwtable
define linkonce_odr hidden noundef nonnull align 8 dereferenceable(32) ptr @_ZNK6google8protobuf12UnknownField16length_delimitedB5cxx11Ev(ptr noundef nonnull align 8 dereferenceable(16) %0) #6 comdat align 2 {
  %2 = alloca ptr, align 8
  store ptr %0, ptr %2, align 8, !tbaa !54
  %3 = load ptr, ptr %2, align 8
  %4 = getelementptr inbounds nuw %"class.google::protobuf::UnknownField", ptr %3, i32 0, i32 2
  %5 = load ptr, ptr %4, align 8, !tbaa !33
  ret ptr %5
}

; Function Attrs: inlinehint mustprogress uwtable
define linkonce_odr hidden noundef i64 @_ZN6google8protobuf2io17CodedOutputStream12VarintSize64Em(i64 noundef %0) #7 comdat align 2 {
  %2 = alloca i64, align 8
  %3 = alloca i32, align 4
  store i64 %0, ptr %2, align 8, !tbaa !17
  call void @llvm.lifetime.start.p0(i64 4, ptr %3) #3
  %4 = load i64, ptr %2, align 8, !tbaa !17
  %5 = or i64 %4, 1
  %6 = call noundef i32 @_ZN6google8protobuf4Bits18Log2FloorNonZero64Em(i64 noundef %5)
  store i32 %6, ptr %3, align 4, !tbaa !10
  %7 = load i32, ptr %3, align 4, !tbaa !10
  %8 = mul i32 %7, 9
  %9 = add i32 %8, 73
  %10 = udiv i32 %9, 64
  %11 = zext i32 %10 to i64
  call void @llvm.lifetime.end.p0(i64 4, ptr %3) #3
  ret i64 %11
}

; Function Attrs: inlinehint mustprogress nounwind uwtable
define linkonce_odr hidden noundef i64 @_ZNK6google8protobuf12UnknownField6varintEv(ptr noundef nonnull align 8 dereferenceable(16) %0) #6 comdat align 2 {
  %2 = alloca ptr, align 8
  store ptr %0, ptr %2, align 8, !tbaa !54
  %3 = load ptr, ptr %2, align 8
  %4 = getelementptr inbounds nuw %"class.google::protobuf::UnknownField", ptr %3, i32 0, i32 2
  %5 = load i64, ptr %4, align 8, !tbaa !33
  ret i64 %5
}

; Function Attrs: inlinehint mustprogress uwtable
define linkonce_odr hidden noundef i64 @_ZN6google8protobuf2io17CodedOutputStream12VarintSize32Ej(i32 noundef %0) #7 comdat align 2 {
  %2 = alloca i32, align 4
  %3 = alloca i32, align 4
  store i32 %0, ptr %2, align 4, !tbaa !10
  call void @llvm.lifetime.start.p0(i64 4, ptr %3) #3
  %4 = load i32, ptr %2, align 4, !tbaa !10
  %5 = or i32 %4, 1
  %6 = call noundef i32 @_ZN6google8protobuf4Bits16Log2FloorNonZeroEj(i32 noundef %5)
  store i32 %6, ptr %3, align 4, !tbaa !10
  %7 = load i32, ptr %3, align 4, !tbaa !10
  %8 = mul i32 %7, 9
  %9 = add i32 %8, 73
  %10 = udiv i32 %9, 64
  %11 = zext i32 %10 to i64
  call void @llvm.lifetime.end.p0(i64 4, ptr %3) #3
  ret i64 %11
}

; Function Attrs: inlinehint mustprogress nounwind uwtable
define linkonce_odr hidden noundef i32 @_ZN6google8protobuf8internal14WireFormatLite7MakeTagEiNS2_8WireTypeE(i32 noundef %0, i32 noundef %1) #6 comdat align 2 {
  %3 = alloca i32, align 4
  %4 = alloca i32, align 4
  store i32 %0, ptr %3, align 4, !tbaa !10
  store i32 %1, ptr %4, align 4, !tbaa !19
  %5 = load i32, ptr %3, align 4, !tbaa !10
  %6 = shl i32 %5, 3
  %7 = load i32, ptr %4, align 4, !tbaa !19
  %8 = or i32 %6, %7
  ret i32 %8
}

; Function Attrs: inlinehint mustprogress nounwind uwtable
define linkonce_odr hidden noundef i32 @_ZNK6google8protobuf12UnknownField6numberEv(ptr noundef nonnull align 8 dereferenceable(16) %0) #6 comdat align 2 {
  %2 = alloca ptr, align 8
  store ptr %0, ptr %2, align 8, !tbaa !54
  %3 = load ptr, ptr %2, align 8
  %4 = getelementptr inbounds nuw %"class.google::protobuf::UnknownField", ptr %3, i32 0, i32 0
  %5 = load i32, ptr %4, align 8, !tbaa !62
  ret i32 %5
}

; Function Attrs: inlinehint mustprogress nounwind uwtable
define linkonce_odr hidden noundef i32 @_ZNK6google8protobuf12UnknownField4typeEv(ptr noundef nonnull align 8 dereferenceable(16) %0) #6 comdat align 2 {
  %2 = alloca ptr, align 8
  store ptr %0, ptr %2, align 8, !tbaa !54
  %3 = load ptr, ptr %2, align 8
  %4 = getelementptr inbounds nuw %"class.google::protobuf::UnknownField", ptr %3, i32 0, i32 1
  %5 = load i32, ptr %4, align 4, !tbaa !60
  ret i32 %5
}

; Function Attrs: inlinehint mustprogress nounwind uwtable
define linkonce_odr hidden noundef nonnull align 8 dereferenceable(16) ptr @_ZNK6google8protobuf15UnknownFieldSet5fieldEi(ptr noundef nonnull align 8 dereferenceable(24) %0, i32 noundef %1) #6 comdat align 2 {
  %3 = alloca ptr, align 8
  %4 = alloca i32, align 4
  store ptr %0, ptr %3, align 8, !tbaa !16
  store i32 %1, ptr %4, align 4, !tbaa !10
  %5 = load ptr, ptr %3, align 8
  %6 = getelementptr inbounds nuw %"class.google::protobuf::UnknownFieldSet", ptr %5, i32 0, i32 0
  %7 = load i32, ptr %4, align 4, !tbaa !10
  %8 = sext i32 %7 to i64
  %9 = call noundef nonnull align 8 dereferenceable(16) ptr @_ZNKSt6vectorIN6google8protobuf12UnknownFieldESaIS2_EEixEm(ptr noundef nonnull align 8 dereferenceable(24) %6, i64 noundef %8) #3
  ret ptr %9
}

; Function Attrs: inlinehint mustprogress nounwind uwtable
define linkonce_odr hidden noundef i32 @_ZNK6google8protobuf15UnknownFieldSet11field_countEv(ptr noundef nonnull align 8 dereferenceable(24) %0) #6 comdat align 2 {
  %2 = alloca ptr, align 8
  store ptr %0, ptr %2, align 8, !tbaa !16
  %3 = load ptr, ptr %2, align 8
  %4 = getelementptr inbounds nuw %"class.google::protobuf::UnknownFieldSet", ptr %3, i32 0, i32 0
  %5 = call noundef i64 @_ZNKSt6vectorIN6google8protobuf12UnknownFieldESaIS2_EE4sizeEv(ptr noundef nonnull align 8 dereferenceable(24) %4) #3
  %6 = trunc i64 %5 to i32
  ret i32 %6
}

; Function Attrs: mustprogress uwtable
define hidden noundef i64 @_ZN6google8protobuf8internal10WireFormat24ComputeUnknownFieldsSizeERKNS0_15UnknownFieldSetE(ptr noundef nonnull align 8 dereferenceable(24) %0) #4 align 2 {
  %2 = alloca ptr, align 8
  %3 = alloca i64, align 8
  %4 = alloca i32, align 4
  %5 = alloca ptr, align 8
  store ptr %0, ptr %2, align 8, !tbaa !16
  call void @llvm.lifetime.start.p0(i64 8, ptr %3) #3
  store i64 0, ptr %3, align 8, !tbaa !17
  call void @llvm.lifetime.start.p0(i64 4, ptr %4) #3
  store i32 0, ptr %4, align 4, !tbaa !10
  br label %6

6:                                                ; preds = %86, %1
  %7 = load i32, ptr %4, align 4, !tbaa !10
  %8 = load ptr, ptr %2, align 8, !tbaa !16
  %9 = call noundef i32 @_ZNK6google8protobuf15UnknownFieldSet11field_countEv(ptr noundef nonnull align 8 dereferenceable(24) %8)
  %10 = icmp slt i32 %7, %9
  br i1 %10, label %12, label %11

11:                                               ; preds = %6
  call void @llvm.lifetime.end.p0(i64 4, ptr %4) #3
  br label %89

12:                                               ; preds = %6
  call void @llvm.lifetime.start.p0(i64 8, ptr %5) #3
  %13 = load ptr, ptr %2, align 8, !tbaa !16
  %14 = load i32, ptr %4, align 4, !tbaa !10
  %15 = call noundef nonnull align 8 dereferenceable(16) ptr @_ZNK6google8protobuf15UnknownFieldSet5fieldEi(ptr noundef nonnull align 8 dereferenceable(24) %13, i32 noundef %14)
  store ptr %15, ptr %5, align 8, !tbaa !54
  %16 = load ptr, ptr %5, align 8, !tbaa !54
  %17 = call noundef i32 @_ZNK6google8protobuf12UnknownField4typeEv(ptr noundef nonnull align 8 dereferenceable(16) %16)
  switch i32 %17, label %85 [
    i32 0, label %18
    i32 1, label %30
    i32 2, label %39
    i32 3, label %48
    i32 4, label %67
  ]

18:                                               ; preds = %12
  %19 = load ptr, ptr %5, align 8, !tbaa !54
  %20 = call noundef i32 @_ZNK6google8protobuf12UnknownField6numberEv(ptr noundef nonnull align 8 dereferenceable(16) %19)
  %21 = call noundef i32 @_ZN6google8protobuf8internal14WireFormatLite7MakeTagEiNS2_8WireTypeE(i32 noundef %20, i32 noundef 0)
  %22 = call noundef i64 @_ZN6google8protobuf2io17CodedOutputStream12VarintSize32Ej(i32 noundef %21)
  %23 = load i64, ptr %3, align 8, !tbaa !17
  %24 = add i64 %23, %22
  store i64 %24, ptr %3, align 8, !tbaa !17
  %25 = load ptr, ptr %5, align 8, !tbaa !54
  %26 = call noundef i64 @_ZNK6google8protobuf12UnknownField6varintEv(ptr noundef nonnull align 8 dereferenceable(16) %25)
  %27 = call noundef i64 @_ZN6google8protobuf2io17CodedOutputStream12VarintSize64Em(i64 noundef %26)
  %28 = load i64, ptr %3, align 8, !tbaa !17
  %29 = add i64 %28, %27
  store i64 %29, ptr %3, align 8, !tbaa !17
  br label %85

30:                                               ; preds = %12
  %31 = load ptr, ptr %5, align 8, !tbaa !54
  %32 = call noundef i32 @_ZNK6google8protobuf12UnknownField6numberEv(ptr noundef nonnull align 8 dereferenceable(16) %31)
  %33 = call noundef i32 @_ZN6google8protobuf8internal14WireFormatLite7MakeTagEiNS2_8WireTypeE(i32 noundef %32, i32 noundef 5)
  %34 = call noundef i64 @_ZN6google8protobuf2io17CodedOutputStream12VarintSize32Ej(i32 noundef %33)
  %35 = load i64, ptr %3, align 8, !tbaa !17
  %36 = add i64 %35, %34
  store i64 %36, ptr %3, align 8, !tbaa !17
  %37 = load i64, ptr %3, align 8, !tbaa !17
  %38 = add i64 %37, 4
  store i64 %38, ptr %3, align 8, !tbaa !17
  br label %85

39:                                               ; preds = %12
  %40 = load ptr, ptr %5, align 8, !tbaa !54
  %41 = call noundef i32 @_ZNK6google8protobuf12UnknownField6numberEv(ptr noundef nonnull align 8 dereferenceable(16) %40)
  %42 = call noundef i32 @_ZN6google8protobuf8internal14WireFormatLite7MakeTagEiNS2_8WireTypeE(i32 noundef %41, i32 noundef 1)
  %43 = call noundef i64 @_ZN6google8protobuf2io17CodedOutputStream12VarintSize32Ej(i32 noundef %42)
  %44 = load i64, ptr %3, align 8, !tbaa !17
  %45 = add i64 %44, %43
  store i64 %45, ptr %3, align 8, !tbaa !17
  %46 = load i64, ptr %3, align 8, !tbaa !17
  %47 = add i64 %46, 8
  store i64 %47, ptr %3, align 8, !tbaa !17
  br label %85

48:                                               ; preds = %12
  %49 = load ptr, ptr %5, align 8, !tbaa !54
  %50 = call noundef i32 @_ZNK6google8protobuf12UnknownField6numberEv(ptr noundef nonnull align 8 dereferenceable(16) %49)
  %51 = call noundef i32 @_ZN6google8protobuf8internal14WireFormatLite7MakeTagEiNS2_8WireTypeE(i32 noundef %50, i32 noundef 2)
  %52 = call noundef i64 @_ZN6google8protobuf2io17CodedOutputStream12VarintSize32Ej(i32 noundef %51)
  %53 = load i64, ptr %3, align 8, !tbaa !17
  %54 = add i64 %53, %52
  store i64 %54, ptr %3, align 8, !tbaa !17
  %55 = load ptr, ptr %5, align 8, !tbaa !54
  %56 = call noundef nonnull align 8 dereferenceable(32) ptr @_ZNK6google8protobuf12UnknownField16length_delimitedB5cxx11Ev(ptr noundef nonnull align 8 dereferenceable(16) %55)
  %57 = call noundef i64 @_ZNKSt7__cxx1112basic_stringIcSt11char_traitsIcESaIcEE4sizeEv(ptr noundef nonnull align 8 dereferenceable(32) %56) #3
  %58 = trunc i64 %57 to i32
  %59 = call noundef i64 @_ZN6google8protobuf2io17CodedOutputStream12VarintSize32Ej(i32 noundef %58)
  %60 = load i64, ptr %3, align 8, !tbaa !17
  %61 = add i64 %60, %59
  store i64 %61, ptr %3, align 8, !tbaa !17
  %62 = load ptr, ptr %5, align 8, !tbaa !54
  %63 = call noundef nonnull align 8 dereferenceable(32) ptr @_ZNK6google8protobuf12UnknownField16length_delimitedB5cxx11Ev(ptr noundef nonnull align 8 dereferenceable(16) %62)
  %64 = call noundef i64 @_ZNKSt7__cxx1112basic_stringIcSt11char_traitsIcESaIcEE4sizeEv(ptr noundef nonnull align 8 dereferenceable(32) %63) #3
  %65 = load i64, ptr %3, align 8, !tbaa !17
  %66 = add i64 %65, %64
  store i64 %66, ptr %3, align 8, !tbaa !17
  br label %85

67:                                               ; preds = %12
  %68 = load ptr, ptr %5, align 8, !tbaa !54
  %69 = call noundef i32 @_ZNK6google8protobuf12UnknownField6numberEv(ptr noundef nonnull align 8 dereferenceable(16) %68)
  %70 = call noundef i32 @_ZN6google8protobuf8internal14WireFormatLite7MakeTagEiNS2_8WireTypeE(i32 noundef %69, i32 noundef 3)
  %71 = call noundef i64 @_ZN6google8protobuf2io17CodedOutputStream12VarintSize32Ej(i32 noundef %70)
  %72 = load i64, ptr %3, align 8, !tbaa !17
  %73 = add i64 %72, %71
  store i64 %73, ptr %3, align 8, !tbaa !17
  %74 = load ptr, ptr %5, align 8, !tbaa !54
  %75 = call noundef nonnull align 8 dereferenceable(24) ptr @_ZNK6google8protobuf12UnknownField5groupEv(ptr noundef nonnull align 8 dereferenceable(16) %74)
  %76 = call noundef i64 @_ZN6google8protobuf8internal10WireFormat24ComputeUnknownFieldsSizeERKNS0_15UnknownFieldSetE(ptr noundef nonnull align 8 dereferenceable(24) %75)
  %77 = load i64, ptr %3, align 8, !tbaa !17
  %78 = add i64 %77, %76
  store i64 %78, ptr %3, align 8, !tbaa !17
  %79 = load ptr, ptr %5, align 8, !tbaa !54
  %80 = call noundef i32 @_ZNK6google8protobuf12UnknownField6numberEv(ptr noundef nonnull align 8 dereferenceable(16) %79)
  %81 = call noundef i32 @_ZN6google8protobuf8internal14WireFormatLite7MakeTagEiNS2_8WireTypeE(i32 noundef %80, i32 noundef 4)
  %82 = call noundef i64 @_ZN6google8protobuf2io17CodedOutputStream12VarintSize32Ej(i32 noundef %81)
  %83 = load i64, ptr %3, align 8, !tbaa !17
  %84 = add i64 %83, %82
  store i64 %84, ptr %3, align 8, !tbaa !17
  br label %85

85:                                               ; preds = %12, %67, %48, %39, %30, %18
  call void @llvm.lifetime.end.p0(i64 8, ptr %5) #3
  br label %86

86:                                               ; preds = %85
  %87 = load i32, ptr %4, align 4, !tbaa !10
  %88 = add nsw i32 %87, 1
  store i32 %88, ptr %4, align 4, !tbaa !10
  br label %6, !llvm.loop !66

89:                                               ; preds = %11
  %90 = load i64, ptr %3, align 8, !tbaa !17
  call void @llvm.lifetime.end.p0(i64 8, ptr %3) #3
  ret i64 %90
}