; Function Attrs: mustprogress nofree nosync nounwind willreturn memory(read, inaccessiblemem: none) uwtable
define hidden noundef i64 @_ZN6google8protobuf8internal10WireFormat24ComputeUnknownFieldsSizeERKNS0_15UnknownFieldSetE(ptr noundef nonnull readonly align 8 captures(none) dereferenceable(24) %0) local_unnamed_addr #6 align 2 {
  %2 = getelementptr inbounds nuw i8, ptr %0, i64 8
  %3 = load ptr, ptr %2, align 8, !tbaa !31
  %4 = load ptr, ptr %0, align 8, !tbaa !34
  %5 = ptrtoint ptr %3 to i64
  %6 = ptrtoint ptr %4 to i64
  %7 = sub i64 %5, %6
  %8 = lshr exact i64 %7, 4
  %9 = trunc i64 %8 to i32
  %10 = icmp sgt i32 %9, 0
  br i1 %10, label %.lr.ph.preheader, label %._crit_edge

.lr.ph.preheader:                                 ; preds = %1
  %wide.trip.count = and i64 %8, 2147483647
  br label %.lr.ph

._crit_edge:                                      ; preds = %106, %1
  %.0.lcssa = phi i64 [ 0, %1 ], [ %.1, %106 ]
  ret i64 %.0.lcssa

.lr.ph:                                           ; preds = %.lr.ph.preheader, %106
  %indvars.iv = phi i64 [ 0, %.lr.ph.preheader ], [ %indvars.iv.next, %106 ]
  %.030 = phi i64 [ 0, %.lr.ph.preheader ], [ %.1, %106 ]
  %11 = getelementptr inbounds nuw %"class.google::protobuf::UnknownField", ptr %4, i64 %indvars.iv
  %12 = getelementptr inbounds nuw i8, ptr %11, i64 4
  %13 = load i32, ptr %12, align 4, !tbaa !38
  switch i32 %13, label %106 [
    i32 0, label %14
    i32 1, label %34
    i32 2, label %46
    i32 3, label %58
    i32 4, label %83
  ]

14:                                               ; preds = %.lr.ph
  %15 = load i32, ptr %11, align 8, !tbaa !40
  %16 = shl i32 %15, 3
  %17 = or disjoint i32 %16, 1
  %18 = tail call range(i32 0, 33) i32 @llvm.ctlz.i32(i32 %17, i1 true)
  %19 = xor i32 %18, 31
  %20 = mul nuw nsw i32 %19, 9
  %21 = add nuw nsw i32 %20, 73
  %22 = lshr i32 %21, 6
  %23 = zext nneg i32 %22 to i64
  %24 = getelementptr inbounds nuw i8, ptr %11, i64 8
  %25 = load i64, ptr %24, align 8, !tbaa !20
  %26 = or i64 %25, 1
  %27 = tail call range(i64 0, 65) i64 @llvm.ctlz.i64(i64 %26, i1 true)
  %28 = xor i64 %27, 63
  %29 = mul nuw nsw i64 %28, 9
  %30 = add nuw nsw i64 %29, 73
  %31 = lshr i64 %30, 6
  %32 = add i64 %31, %.030
  %33 = add i64 %32, %23
  br label %106

34:                                               ; preds = %.lr.ph
  %35 = load i32, ptr %11, align 8, !tbaa !40
  %36 = shl i32 %35, 3
  %37 = or disjoint i32 %36, 5
  %38 = tail call range(i32 0, 33) i32 @llvm.ctlz.i32(i32 %37, i1 true)
  %39 = xor i32 %38, 31
  %40 = mul nuw nsw i32 %39, 9
  %41 = add nuw nsw i32 %40, 73
  %42 = lshr i32 %41, 6
  %43 = zext nneg i32 %42 to i64
  %44 = add i64 %.030, 4
  %45 = add i64 %44, %43
  br label %106

46:                                               ; preds = %.lr.ph
  %47 = load i32, ptr %11, align 8, !tbaa !40
  %48 = shl i32 %47, 3
  %49 = or disjoint i32 %48, 1
  %50 = tail call range(i32 0, 33) i32 @llvm.ctlz.i32(i32 %49, i1 true)
  %51 = xor i32 %50, 31
  %52 = mul nuw nsw i32 %51, 9
  %53 = add nuw nsw i32 %52, 73
  %54 = lshr i32 %53, 6
  %55 = zext nneg i32 %54 to i64
  %56 = add i64 %.030, 8
  %57 = add i64 %56, %55
  br label %106

58:                                               ; preds = %.lr.ph
  %59 = load i32, ptr %11, align 8, !tbaa !40
  %60 = shl i32 %59, 3
  %61 = or disjoint i32 %60, 3
  %62 = tail call range(i32 0, 33) i32 @llvm.ctlz.i32(i32 %61, i1 true)
  %63 = xor i32 %62, 31
  %64 = mul nuw nsw i32 %63, 9
  %65 = add nuw nsw i32 %64, 73
  %66 = lshr i32 %65, 6
  %67 = zext nneg i32 %66 to i64
  %68 = getelementptr inbounds nuw i8, ptr %11, i64 8
  %69 = load ptr, ptr %68, align 8, !tbaa !20
  %70 = getelementptr inbounds nuw i8, ptr %69, i64 8
  %71 = load i64, ptr %70, align 8, !tbaa !44
  %72 = trunc i64 %71 to i32
  %73 = or i32 %72, 1
  %74 = tail call range(i32 0, 33) i32 @llvm.ctlz.i32(i32 %73, i1 true)
  %75 = xor i32 %74, 31
  %76 = mul nuw nsw i32 %75, 9
  %77 = add nuw nsw i32 %76, 73
  %78 = lshr i32 %77, 6
  %79 = zext nneg i32 %78 to i64
  %80 = add i64 %71, %.030
  %81 = add i64 %80, %67
  %82 = add i64 %81, %79
  br label %106

83:                                               ; preds = %.lr.ph
  %84 = load i32, ptr %11, align 8, !tbaa !40
  %85 = shl i32 %84, 3
  %86 = or disjoint i32 %85, 3
  %87 = tail call range(i32 0, 33) i32 @llvm.ctlz.i32(i32 %86, i1 true)
  %88 = xor i32 %87, 31
  %89 = mul nuw nsw i32 %88, 9
  %90 = add nuw nsw i32 %89, 73
  %91 = lshr i32 %90, 6
  %92 = zext nneg i32 %91 to i64
  %93 = getelementptr inbounds nuw i8, ptr %11, i64 8
  %94 = load ptr, ptr %93, align 8, !tbaa !20
  %95 = tail call noundef i64 @_ZN6google8protobuf8internal10WireFormat24ComputeUnknownFieldsSizeERKNS0_15UnknownFieldSetE(ptr noundef nonnull align 8 dereferenceable(24) %94)
  %96 = or disjoint i32 %85, 5
  %97 = tail call range(i32 0, 33) i32 @llvm.ctlz.i32(i32 %96, i1 true)
  %98 = xor i32 %97, 31
  %99 = mul nuw nsw i32 %98, 9
  %100 = add nuw nsw i32 %99, 73
  %101 = lshr i32 %100, 6
  %102 = zext nneg i32 %101 to i64
  %103 = add i64 %95, %.030
  %104 = add i64 %103, %92
  %105 = add i64 %104, %102
  br label %106

106:                                              ; preds = %83, %58, %46, %34, %14, %.lr.ph
  %.1 = phi i64 [ %.030, %.lr.ph ], [ %105, %83 ], [ %82, %58 ], [ %57, %46 ], [ %45, %34 ], [ %33, %14 ]
  %indvars.iv.next = add nuw nsw i64 %indvars.iv, 1
  %exitcond.not = icmp eq i64 %indvars.iv.next, %wide.trip.count
  br i1 %exitcond.not, label %._crit_edge, label %.lr.ph, !llvm.loop !51
}